Certificate:
    Data:
        Version: 1 (0x0)
        Serial Number: 4099 (0x1003)
        Signature Algorithm: ecdsa-with-SHA256
        Issuer: CN=Interm.
        Validity
            Not Before: Feb 15 01:08:42 2022 GMT
            Not After : Feb 15 01:08:42 2023 GMT
        Subject: CN=3.example.com
        Subject Public Key Info:
            Public Key Algorithm: id-ecPublicKey
                Public-Key: (384 bit)
                pub:
                    04:19:f3:28:66:ca:26:ef:e7:c8:69:64:07:12:83:
                    a3:4f:6e:ba:7f:0f:23:8b:52:62:5c:f7:52:48:a6:
                    09:11:34:d8:57:c9:67:93:cd:25:b1:c3:b0:ae:52:
                    fb:ad:92:e0:29:8f:3f:67:5c:11:51:9c:ba:32:9b:
                    2a:a0:b3:14:36:12:ce:a8:8d:3b:db:de:14:23:4c:
                    25:a3:80:9b:a9:80:a6:a3:a6:7d:42:31:f9:95:a3:
                    ca:72:cc:ea:5e:7b:47
                ASN1 OID: secp384r1
                NIST CURVE: P-384
    Signature Algorithm: ecdsa-with-SHA256
         30:64:02:30:7c:15:11:ae:fe:62:1e:19:17:dc:7b:8d:de:2c:
         fb:04:d4:7a:6e:97:43:1b:d2:bb:92:db:91:5f:d1:f1:d7:61:
         b3:96:a5:8e:d8:d0:27:e6:c7:50:d3:67:a4:4f:fb:29:02:30:
         02:90:00:46:23:69:b6:72:83:af:38:e1:6a:7b:26:c5:15:ee:
         2a:e3:e5:cb:70:f9:aa:08:0c:09:00:dd:2c:c4:aa:9a:9d:09:
         c5:62:d3:01:2e:9b:51:0b:0b:0d:fa:fc
-----BEGIN CERTIFICATE-----
MIIBTjCB1gICEAMwCgYIKoZIzj0EAwIwEjEQMA4GA1UEAwwHSW50ZXJtLjAeFw0y
MjAyMTUwMTA4NDJaFw0yMzAyMTUwMTA4NDJaMBgxFjAUBgNVBAMMDTMuZXhhbXBs
ZS5jb20wdjAQBgcqhkjOPQIBBgUrgQQAIgNiAAQZ8yhmyibv58hpZAcSg6NPbrp/
DyOLUmJc91JIpgkRNNhXyWeTzSWxw7CuUvutkuApjz9nXBFRnLoymyqgsxQ2Es6o
jTvb3hQjTCWjgJupgKajpn1CMfmVo8pyzOpee0cwCgYIKoZIzj0EAwIDZwAwZAIw
fBURrv5iHhkX3HuN3iz7BNR6bpdDG9K7ktuRX9Hx12GzlqWO2NAn5sdQ02ekT/sp
AjACkABGI2m2coOvOOFqeybFFe4q4+XLcPmqCAwJAN0sxKqanQnFYtMBLptRCwsN
+vw=
-----END CERTIFICATE-----
