Certificate:
    Data:
        Version: 1 (0x0)
        Serial Number: 4097 (0x1001)
        Signature Algorithm: ecdsa-with-SHA256
        Issuer: CN=Interm.
        Validity
            Not Before: Feb 15 01:08:42 2022 GMT
            Not After : Feb 15 01:08:42 2023 GMT
        Subject: CN=1.example.com
        Subject Public Key Info:
            Public Key Algorithm: id-ecPublicKey
                Public-Key: (384 bit)
                pub:
                    04:62:ee:6e:fa:38:8f:f5:59:d2:5b:6f:98:ec:66:
                    a8:06:87:53:b5:8a:5f:9b:c8:dd:c9:e1:90:eb:f7:
                    65:9b:e8:92:a5:e3:44:12:54:e7:81:1f:19:fe:f2:
                    1c:eb:53:08:c2:45:34:d5:96:73:7b:d2:25:3d:84:
                    98:71:0d:4e:53:52:88:65:a0:1d:3b:fc:71:c2:4f:
                    f3:c2:4d:f9:4c:ed:7d:16:b9:d1:5c:4a:26:18:a6:
                    19:d9:46:69:b8:da:ec
                ASN1 OID: secp384r1
                NIST CURVE: P-384
    Signature Algorithm: ecdsa-with-SHA256
         30:65:02:30:30:3f:62:eb:16:4e:d2:72:be:85:0e:a0:58:15:
         61:df:10:bd:58:55:63:ae:f4:52:0c:fb:ad:41:5d:dc:ce:7f:
         7f:1c:1e:da:33:10:70:4c:42:fc:0f:ef:5a:ca:8e:f8:02:31:
         00:82:c3:bb:af:a6:9f:97:b2:a4:10:1e:43:0c:19:25:a3:a6:
         d1:51:19:11:e1:14:39:a4:7e:ea:aa:54:e4:07:0b:75:30:4c:
         71:a3:24:05:2d:90:30:c3:9e:74:95:28:2f
-----BEGIN CERTIFICATE-----
MIIBTzCB1gICEAEwCgYIKoZIzj0EAwIwEjEQMA4GA1UEAwwHSW50ZXJtLjAeFw0y
MjAyMTUwMTA4NDJaFw0yMzAyMTUwMTA4NDJaMBgxFjAUBgNVBAMMDTEuZXhhbXBs
ZS5jb20wdjAQBgcqhkjOPQIBBgUrgQQAIgNiAARi7m76OI/1WdJbb5jsZqgGh1O1
il+byN3J4ZDr92Wb6JKl40QSVOeBHxn+8hzrUwjCRTTVlnN70iU9hJhxDU5TUohl
oB07/HHCT/PCTflM7X0WudFcSiYYphnZRmm42uwwCgYIKoZIzj0EAwIDaAAwZQIw
MD9i6xZO0nK+hQ6gWBVh3xC9WFVjrvRSDPutQV3czn9/HB7aMxBwTEL8D+9ayo74
AjEAgsO7r6afl7KkEB5DDBklo6bRURkR4RQ5pH7qqlTkBwt1MExxoyQFLZAww550
lSgv
-----END CERTIFICATE-----
