Certificate:
    Data:
        Version: 1 (0x0)
        Serial Number: 4098 (0x1002)
        Signature Algorithm: ecdsa-with-SHA256
        Issuer: CN=Interm.
        Validity
            Not Before: Feb 15 01:08:42 2022 GMT
            Not After : Feb 15 01:08:42 2023 GMT
        Subject: CN=2.example.com
        Subject Public Key Info:
            Public Key Algorithm: id-ecPublicKey
                Public-Key: (384 bit)
                pub:
                    04:33:67:cc:25:34:91:b9:25:0a:26:ba:35:ba:0a:
                    57:bf:4a:e7:46:c6:2c:05:d8:ee:84:d0:4d:45:94:
                    79:97:de:6c:08:8e:e2:6c:5e:2d:ea:da:ad:c7:04:
                    b5:dd:a3:f8:ee:68:2b:1a:20:ef:a3:17:30:6f:89:
                    a6:99:49:60:48:e8:d9:1a:9a:1f:d6:cc:b8:f3:f7:
                    19:f6:7d:c3:fe:b6:9f:5e:cd:7d:78:62:83:b9:52:
                    3a:37:4b:62:23:99:2d
                ASN1 OID: secp384r1
                NIST CURVE: P-384
    Signature Algorithm: ecdsa-with-SHA256
         30:64:02:30:18:64:a7:f6:0a:36:1b:45:9e:15:7b:74:a1:dd:
         82:a1:db:06:ce:a5:c1:4f:fe:a9:24:8b:7e:ba:2e:d3:12:f8:
         1a:d8:cd:b0:ce:ae:c7:2c:52:8c:e1:1d:8d:e0:0e:87:02:30:
         11:55:27:6e:92:a4:b9:2c:6b:f5:67:23:b4:20:4b:50:49:ec:
         1a:3c:ef:4c:3d:fa:94:45:3c:57:73:a2:d7:e6:08:a4:5a:62:
         31:be:c5:86:11:01:af:ab:30:73:29:21
-----BEGIN CERTIFICATE-----
MIIBTjCB1gICEAIwCgYIKoZIzj0EAwIwEjEQMA4GA1UEAwwHSW50ZXJtLjAeFw0y
MjAyMTUwMTA4NDJaFw0yMzAyMTUwMTA4NDJaMBgxFjAUBgNVBAMMDTIuZXhhbXBs
ZS5jb20wdjAQBgcqhkjOPQIBBgUrgQQAIgNiAAQzZ8wlNJG5JQomujW6Cle/SudG
xiwF2O6E0E1FlHmX3mwIjuJsXi3q2q3HBLXdo/juaCsaIO+jFzBviaaZSWBI6Nka
mh/WzLjz9xn2fcP+tp9ezX14YoO5Ujo3S2IjmS0wCgYIKoZIzj0EAwIDZwAwZAIw
GGSn9go2G0WeFXt0od2CodsGzqXBT/6pJIt+ui7TEvga2M2wzq7HLFKM4R2N4A6H
AjARVSdukqS5LGv1ZyO0IEtQSewaPO9MPfqURTxXc6LX5gikWmIxvsWGEQGvqzBz
KSE=
-----END CERTIFICATE-----
